target datalayout = "e-m:e-p270:32:32-p271:32:32-p272:64:64-i64:64-i128:128-f80:128-n8:16:32:64-S128"
target triple = "x86_64-unknown-linux-gnu"

%"class.QuantLib::Date" = type { i64 }

; Function Attrs: inlinehint mustprogress nounwind uwtable
define linkonce_odr noundef i64 @_ZN8QuantLibmiERKNS_4DateES2_(ptr noundef nonnull align 8 dereferenceable(8) %d1, ptr noundef nonnull align 8 dereferenceable(8) %d2) #5 comdat {
entry:
  %d1.addr = alloca ptr, align 8
  %d2.addr = alloca ptr, align 8
  store ptr %d1, ptr %d1.addr, align 8, !tbaa !3
  store ptr %d2, ptr %d2.addr, align 8, !tbaa !3
  %0 = load ptr, ptr %d1.addr, align 8, !tbaa !3
  %call = call noundef i64 @_ZNK8QuantLib4Date12serialNumberEv(ptr noundef nonnull align 8 dereferenceable(8) %0)
  %1 = load ptr, ptr %d2.addr, align 8, !tbaa !3
  %call1 = call noundef i64 @_ZNK8QuantLib4Date12serialNumberEv(ptr noundef nonnull align 8 dereferenceable(8) %1)
  %sub = sub nsw i64 %call, %call1
  ret i64 %sub
}

; Function Attrs: inlinehint mustprogress nounwind uwtable
define linkonce_odr noundef i64 @_ZNK8QuantLib4Date12serialNumberEv(ptr noundef nonnull align 8 dereferenceable(8) %this) #5 comdat align 2 {
entry:
  %this.addr = alloca ptr, align 8
  store ptr %this, ptr %this.addr, align 8, !tbaa !3
  %this1 = load ptr, ptr %this.addr, align 8
  %serialNumber_ = getelementptr inbounds nuw %"class.QuantLib::Date", ptr %this1, i32 0, i32 0
  %0 = load i64, ptr %serialNumber_, align 8, !tbaa !53
  ret i64 %0
}

; Function Attrs: inlinehint mustprogress nounwind uwtable
define linkonce_odr noundef double @_ZN8QuantLib11daysBetweenERKNS_4DateES2_(ptr noundef nonnull align 8 dereferenceable(8) %d1, ptr noundef nonnull align 8 dereferenceable(8) %d2) #5 comdat {
entry:
  %d1.addr = alloca ptr, align 8
  %d2.addr = alloca ptr, align 8
  store ptr %d1, ptr %d1.addr, align 8, !tbaa !3
  store ptr %d2, ptr %d2.addr, align 8, !tbaa !3
  %0 = load ptr, ptr %d2.addr, align 8, !tbaa !3
  %1 = load ptr, ptr %d1.addr, align 8, !tbaa !3
  %call = call noundef i64 @_ZN8QuantLibmiERKNS_4DateES2_(ptr noundef nonnull align 8 dereferenceable(8) %0, ptr noundef nonnull align 8 dereferenceable(8) %1)
  %conv = sitofp i64 %call to double
  ret double %conv
}

; Function Attrs: inlinehint mustprogress nounwind uwtable
define linkonce_odr noundef zeroext i1 @_ZN8QuantLibgtERKNS_4DateES2_(ptr noundef nonnull align 8 dereferenceable(8) %d1, ptr noundef nonnull align 8 dereferenceable(8) %d2) #5 comdat {
entry:
  %d1.addr = alloca ptr, align 8
  %d2.addr = alloca ptr, align 8
  store ptr %d1, ptr %d1.addr, align 8, !tbaa !3
  store ptr %d2, ptr %d2.addr, align 8, !tbaa !3
  %0 = load ptr, ptr %d1.addr, align 8, !tbaa !3
  %call = call noundef i64 @_ZNK8QuantLib4Date12serialNumberEv(ptr noundef nonnull align 8 dereferenceable(8) %0)
  %1 = load ptr, ptr %d2.addr, align 8, !tbaa !3
  %call1 = call noundef i64 @_ZNK8QuantLib4Date12serialNumberEv(ptr noundef nonnull align 8 dereferenceable(8) %1)
  %cmp = icmp sgt i64 %call, %call1
  ret i1 %cmp
}

; Function Attrs: inlinehint mustprogress uwtable
define linkonce_odr noundef zeroext i1 @_ZN8QuantLibeqERKNS_4DateES2_(ptr noundef nonnull align 8 dereferenceable(8) %d1, ptr noundef nonnull align 8 dereferenceable(8) %d2) #7 comdat {
entry:
  %d1.addr = alloca ptr, align 8
  %d2.addr = alloca ptr, align 8
  store ptr %d1, ptr %d1.addr, align 8, !tbaa !3
  store ptr %d2, ptr %d2.addr, align 8, !tbaa !3
  %0 = load ptr, ptr %d1.addr, align 8, !tbaa !3
  %call = call noundef i64 @_ZNK8QuantLib4Date12serialNumberEv(ptr noundef nonnull align 8 dereferenceable(8) %0)
  %1 = load ptr, ptr %d2.addr, align 8, !tbaa !3
  %call1 = call noundef i64 @_ZNK8QuantLib4Date12serialNumberEv(ptr noundef nonnull align 8 dereferenceable(8) %1)
  %cmp = icmp eq i64 %call, %call1
  ret i1 %cmp
}

; Function Attrs: mustprogress uwtable
define noundef double @_ZNK8QuantLib12ActualActual9ISDA_Impl12yearFractionERKNS_4DateES4_S4_S4_(ptr noundef nonnull align 8 dereferenceable(8) %this, ptr noundef nonnull align 8 dereferenceable(8) %d1, ptr noundef nonnull align 8 dereferenceable(8) %d2, ptr noundef nonnull align 8 dereferenceable(8) %0, ptr noundef nonnull align 8 dereferenceable(8) %1) unnamed_addr #3 align 2 {
entry:
  %retval = alloca double, align 8
  %this.addr = alloca ptr, align 8
  %d1.addr = alloca ptr, align 8
  %d2.addr = alloca ptr, align 8
  %.addr = alloca ptr, align 8
  %.addr1 = alloca ptr, align 8
  %ref.tmp = alloca %"class.QuantLib::Date", align 8
  %ref.tmp5 = alloca %"class.QuantLib::Date", align 8
  %y1 = alloca i32, align 4
  %y2 = alloca i32, align 4
  %dib1 = alloca double, align 8
  %dib2 = alloca double, align 8
  %sum = alloca double, align 8
  %ref.tmp14 = alloca %"class.QuantLib::Date", align 8
  %ref.tmp17 = alloca %"class.QuantLib::Date", align 8
  store ptr %this, ptr %this.addr, align 8, !tbaa !3
  store ptr %d1, ptr %d1.addr, align 8, !tbaa !3
  store ptr %d2, ptr %d2.addr, align 8, !tbaa !3
  store ptr %0, ptr %.addr, align 8, !tbaa !3
  store ptr %1, ptr %.addr1, align 8, !tbaa !3
  %this2 = load ptr, ptr %this.addr, align 8
  %2 = load ptr, ptr %d1.addr, align 8, !tbaa !3
  %3 = load ptr, ptr %d2.addr, align 8, !tbaa !3
  %call = call noundef zeroext i1 @_ZN8QuantLibeqERKNS_4DateES2_(ptr noundef nonnull align 8 dereferenceable(8) %2, ptr noundef nonnull align 8 dereferenceable(8) %3)
  br i1 %call, label %if.then, label %if.end

if.then:                                          ; preds = %entry
  store double 0.000000e+00, ptr %retval, align 8
  br label %return

if.end:                                           ; preds = %entry
  %4 = load ptr, ptr %d1.addr, align 8, !tbaa !3
  %5 = load ptr, ptr %d2.addr, align 8, !tbaa !3
  %call3 = call noundef zeroext i1 @_ZN8QuantLibgtERKNS_4DateES2_(ptr noundef nonnull align 8 dereferenceable(8) %4, ptr noundef nonnull align 8 dereferenceable(8) %5)
  br i1 %call3, label %if.then4, label %if.end7

if.then4:                                         ; preds = %if.end
  %6 = load ptr, ptr %d2.addr, align 8, !tbaa !3
  %7 = load ptr, ptr %d1.addr, align 8, !tbaa !3
  call void @llvm.lifetime.start.p0(i64 8, ptr %ref.tmp) #17
  call void @_ZN8QuantLib4DateC1Ev(ptr noundef nonnull align 8 dereferenceable(8) %ref.tmp)
  call void @llvm.lifetime.start.p0(i64 8, ptr %ref.tmp5) #17
  call void @_ZN8QuantLib4DateC1Ev(ptr noundef nonnull align 8 dereferenceable(8) %ref.tmp5)
  %call6 = call noundef double @_ZNK8QuantLib12ActualActual9ISDA_Impl12yearFractionERKNS_4DateES4_S4_S4_(ptr noundef nonnull align 8 dereferenceable(8) %this2, ptr noundef nonnull align 8 dereferenceable(8) %6, ptr noundef nonnull align 8 dereferenceable(8) %7, ptr noundef nonnull align 8 dereferenceable(8) %ref.tmp, ptr noundef nonnull align 8 dereferenceable(8) %ref.tmp5)
  %fneg = fneg double %call6
  store double %fneg, ptr %retval, align 8
  call void @llvm.lifetime.end.p0(i64 8, ptr %ref.tmp5) #17
  call void @llvm.lifetime.end.p0(i64 8, ptr %ref.tmp) #17
  br label %return

if.end7:                                          ; preds = %if.end
  call void @llvm.lifetime.start.p0(i64 4, ptr %y1) #17
  %8 = load ptr, ptr %d1.addr, align 8, !tbaa !3
  %call8 = call noundef i32 @_ZNK8QuantLib4Date4yearEv(ptr noundef nonnull align 8 dereferenceable(8) %8)
  store i32 %call8, ptr %y1, align 4, !tbaa !27
  call void @llvm.lifetime.start.p0(i64 4, ptr %y2) #17
  %9 = load ptr, ptr %d2.addr, align 8, !tbaa !3
  %call9 = call noundef i32 @_ZNK8QuantLib4Date4yearEv(ptr noundef nonnull align 8 dereferenceable(8) %9)
  store i32 %call9, ptr %y2, align 4, !tbaa !27
  call void @llvm.lifetime.start.p0(i64 8, ptr %dib1) #17
  %10 = load i32, ptr %y1, align 4, !tbaa !27
  %call10 = call noundef zeroext i1 @_ZN8QuantLib4Date6isLeapEi(i32 noundef %10)
  %cond = select i1 %call10, double 3.660000e+02, double 3.650000e+02
  store double %cond, ptr %dib1, align 8, !tbaa !17
  call void @llvm.lifetime.start.p0(i64 8, ptr %dib2) #17
  %11 = load i32, ptr %y2, align 4, !tbaa !27
  %call11 = call noundef zeroext i1 @_ZN8QuantLib4Date6isLeapEi(i32 noundef %11)
  %cond12 = select i1 %call11, double 3.660000e+02, double 3.650000e+02
  store double %cond12, ptr %dib2, align 8, !tbaa !17
  call void @llvm.lifetime.start.p0(i64 8, ptr %sum) #17
  %12 = load i32, ptr %y2, align 4, !tbaa !27
  %13 = load i32, ptr %y1, align 4, !tbaa !27
  %sub = sub nsw i32 %12, %13
  %sub13 = sub nsw i32 %sub, 1
  %conv = sitofp i32 %sub13 to double
  store double %conv, ptr %sum, align 8, !tbaa !17
  %14 = load ptr, ptr %d1.addr, align 8, !tbaa !3
  call void @llvm.lifetime.start.p0(i64 8, ptr %ref.tmp14) #17
  %15 = load i32, ptr %y1, align 4, !tbaa !27
  %add = add nsw i32 %15, 1
  call void @_ZN8QuantLib4DateC1EiNS_5MonthEi(ptr noundef nonnull align 8 dereferenceable(8) %ref.tmp14, i32 noundef 1, i32 noundef 1, i32 noundef %add)
  %call15 = call noundef double @_ZN8QuantLib11daysBetweenERKNS_4DateES2_(ptr noundef nonnull align 8 dereferenceable(8) %14, ptr noundef nonnull align 8 dereferenceable(8) %ref.tmp14)
  %16 = load double, ptr %dib1, align 8, !tbaa !17
  %div = fdiv double %call15, %16
  %17 = load double, ptr %sum, align 8, !tbaa !17
  %add16 = fadd double %17, %div
  store double %add16, ptr %sum, align 8, !tbaa !17
  call void @llvm.lifetime.end.p0(i64 8, ptr %ref.tmp14) #17
  call void @llvm.lifetime.start.p0(i64 8, ptr %ref.tmp17) #17
  %18 = load i32, ptr %y2, align 4, !tbaa !27
  call void @_ZN8QuantLib4DateC1EiNS_5MonthEi(ptr noundef nonnull align 8 dereferenceable(8) %ref.tmp17, i32 noundef 1, i32 noundef 1, i32 noundef %18)
  %19 = load ptr, ptr %d2.addr, align 8, !tbaa !3
  %call18 = call noundef double @_ZN8QuantLib11daysBetweenERKNS_4DateES2_(ptr noundef nonnull align 8 dereferenceable(8) %ref.tmp17, ptr noundef nonnull align 8 dereferenceable(8) %19)
  %20 = load double, ptr %dib2, align 8, !tbaa !17
  %div19 = fdiv double %call18, %20
  %21 = load double, ptr %sum, align 8, !tbaa !17
  %add20 = fadd double %21, %div19
  store double %add20, ptr %sum, align 8, !tbaa !17
  call void @llvm.lifetime.end.p0(i64 8, ptr %ref.tmp17) #17
  %22 = load double, ptr %sum, align 8, !tbaa !17
  store double %22, ptr %retval, align 8
  call void @llvm.lifetime.end.p0(i64 8, ptr %sum) #17
  call void @llvm.lifetime.end.p0(i64 8, ptr %dib2) #17
  call void @llvm.lifetime.end.p0(i64 8, ptr %dib1) #17
  call void @llvm.lifetime.end.p0(i64 4, ptr %y2) #17
  call void @llvm.lifetime.end.p0(i64 4, ptr %y1) #17
  br label %return

return:                                           ; preds = %if.end7, %if.then4, %if.then
  %23 = load double, ptr %retval, align 8
  ret double %23
}