; Function Attrs: mustprogress uwtable
define noundef double @_ZNK8QuantLib12ActualActual9ISDA_Impl12yearFractionERKNS_4DateES4_S4_S4_(ptr nocapture noundef nonnull readnone align 8 dereferenceable(8) %this, ptr noundef nonnull align 8 dereferenceable(8) %d1, ptr noundef nonnull align 8 dereferenceable(8) %d2, ptr nocapture nonnull readnone align 8 %0, ptr nocapture nonnull readnone align 8 %1) unnamed_addr #0 align 2 {
entry:
  %ref.tmp = alloca %"class.QuantLib::Date", align 8
  %ref.tmp5 = alloca %"class.QuantLib::Date", align 8
  %ref.tmp14 = alloca %"class.QuantLib::Date", align 8
  %ref.tmp17 = alloca %"class.QuantLib::Date", align 8
  %2 = load i64, ptr %d1, align 8, !tbaa !39
  %3 = load i64, ptr %d2, align 8, !tbaa !39
  %cmp.i = icmp eq i64 %2, %3
  br i1 %cmp.i, label %return, label %if.end

if.end:                                           ; preds = %entry
  %cmp.i15 = icmp sgt i64 %2, %3
  br i1 %cmp.i15, label %if.then4, label %if.end7

if.then4:                                         ; preds = %if.end
  call void @llvm.lifetime.start.p0(i64 8, ptr nonnull %ref.tmp) #20
  call void @_ZN8QuantLib4DateC1Ev(ptr noundef nonnull align 8 dereferenceable(8) %ref.tmp)
  call void @llvm.lifetime.start.p0(i64 8, ptr nonnull %ref.tmp5) #20
  call void @_ZN8QuantLib4DateC1Ev(ptr noundef nonnull align 8 dereferenceable(8) %ref.tmp5)
  %call6 = call noundef double @_ZNK8QuantLib12ActualActual9ISDA_Impl12yearFractionERKNS_4DateES4_S4_S4_(ptr noundef nonnull align 8 dereferenceable(8) %this, ptr noundef nonnull align 8 dereferenceable(8) %d2, ptr noundef nonnull align 8 dereferenceable(8) %d1, ptr nonnull align 8 poison, ptr nonnull align 8 poison)
  %fneg = fneg double %call6
  call void @llvm.lifetime.end.p0(i64 8, ptr nonnull %ref.tmp5) #20
  call void @llvm.lifetime.end.p0(i64 8, ptr nonnull %ref.tmp) #20
  br label %return

if.end7:                                          ; preds = %if.end
  %call8 = tail call noundef i32 @_ZNK8QuantLib4Date4yearEv(ptr noundef nonnull align 8 dereferenceable(8) %d1)
  %call9 = tail call noundef i32 @_ZNK8QuantLib4Date4yearEv(ptr noundef nonnull align 8 dereferenceable(8) %d2)
  %call10 = tail call noundef zeroext i1 @_ZN8QuantLib4Date6isLeapEi(i32 noundef %call8)
  %cond = select i1 %call10, double 3.660000e+02, double 3.650000e+02
  %call11 = tail call noundef zeroext i1 @_ZN8QuantLib4Date6isLeapEi(i32 noundef %call9)
  %cond12 = select i1 %call11, double 3.660000e+02, double 3.650000e+02
  %4 = xor i32 %call8, -1
  %sub13 = add i32 %call9, %4
  %conv = sitofp i32 %sub13 to double
  call void @llvm.lifetime.start.p0(i64 8, ptr nonnull %ref.tmp14) #20
  %add = add nsw i32 %call8, 1
  call void @_ZN8QuantLib4DateC1EiNS_5MonthEi(ptr noundef nonnull align 8 dereferenceable(8) %ref.tmp14, i32 noundef 1, i32 noundef 1, i32 noundef %add)
  %5 = load i64, ptr %ref.tmp14, align 8, !tbaa !39
  %6 = load i64, ptr %d1, align 8, !tbaa !39
  %sub.i.i = sub nsw i64 %5, %6
  %conv.i = sitofp i64 %sub.i.i to double
  %div = fdiv double %conv.i, %cond
  %add16 = fadd double %div, %conv
  call void @llvm.lifetime.end.p0(i64 8, ptr nonnull %ref.tmp14) #20
  call void @llvm.lifetime.start.p0(i64 8, ptr nonnull %ref.tmp17) #20
  call void @_ZN8QuantLib4DateC1EiNS_5MonthEi(ptr noundef nonnull align 8 dereferenceable(8) %ref.tmp17, i32 noundef 1, i32 noundef 1, i32 noundef %call9)
  %7 = load i64, ptr %d2, align 8, !tbaa !39
  %8 = load i64, ptr %ref.tmp17, align 8, !tbaa !39
  %sub.i.i16 = sub nsw i64 %7, %8
  %conv.i17 = sitofp i64 %sub.i.i16 to double
  %div19 = fdiv double %conv.i17, %cond12
  %add20 = fadd double %add16, %div19
  call void @llvm.lifetime.end.p0(i64 8, ptr nonnull %ref.tmp17) #20
  br label %return

return:                                           ; preds = %entry, %if.end7, %if.then4
  %retval.0 = phi double [ %fneg, %if.then4 ], [ %add20, %if.end7 ], [ 0.000000e+00, %entry ]
  ret double %retval.0
}